target datalayout = "e-m:e-p270:32:32-p271:32:32-p272:64:64-i64:64-i128:128-f80:128-n8:16:32:64-S128"
target triple = "x86_64-pc-linux-gnu"

%struct.ARKodeARKStepMemRec = type { ptr, ptr, i32, i32, i32, i32, i32, i32, ptr, ptr, ptr, ptr, ptr, ptr, i32, i32, i32, i32, ptr, ptr, ptr, ptr, i32, ptr, double, double, double, double, i32, double, double, double, double, double, double, i32, i64, i32, i32, i32, ptr, ptr, ptr, ptr, ptr, ptr, i32, ptr, ptr, ptr, ptr, ptr, ptr, i32, i32, i64, i64, i64, i64, i64, ptr, ptr, i32, i32, i32, double, double, ptr, i32, ptr, ptr }
%struct.ARKodeMemRec = type { ptr, double, ptr, i32, i32, double, double, ptr, i32, double, ptr, i32, i32, ptr, ptr, i32, ptr, ptr, i32, ptr, ptr, ptr, ptr, ptr, ptr, ptr, ptr, ptr, ptr, ptr, ptr, ptr, ptr, ptr, i32, ptr, ptr, i32, ptr, i32, ptr, ptr, ptr, ptr, ptr, ptr, ptr, ptr, ptr, ptr, ptr, ptr, ptr, ptr, ptr, ptr, ptr, ptr, ptr, ptr, ptr, ptr, ptr, ptr, ptr, ptr, i32, ptr, ptr, ptr, ptr, ptr, ptr, ptr, i32, ptr, ptr, ptr, i32, ptr, ptr, ptr, ptr, ptr, ptr, ptr, i32, i32, i32, i32, double, double, double, double, double, double, double, double, double, double, i32, ptr, i64, i32, i32, i32, i32, i64, i64, i32, i64, i64, i64, i64, i64, i64, i64, double, double, double, double, double, i32, double, double, i32, i32, i32, i32, i32, i32, i32, i32, ptr, i32, ptr, ptr, ptr, ptr, i32, i32, i32 }

@.str = private unnamed_addr constant [126 x i8] c"generated/home/dtcxzyw/WorkSpace/Projects/compilers/llvm-opt-benchmark/bench/sundials/sundials/src/arkode/arkode_arkstep_io.c\00", align 1
@__func__.arkStep_SetMaxNonlinIters = private unnamed_addr constant [26 x i8] c"arkStep_SetMaxNonlinIters\00", align 1
@.str.23 = private unnamed_addr constant [40 x i8] c"No SUNNonlinearSolver object is present\00", align 1
@.str.24 = private unnamed_addr constant [50 x i8] c"Error setting maxcor in SUNNonlinearSolver object\00", align 1

; Function Attrs: nounwind uwtable
define i32 @arkStep_SetMaxNonlinIters(ptr noundef %0, i32 noundef %1) #0 {
  %3 = alloca i32, align 4
  %4 = alloca ptr, align 8
  %5 = alloca i32, align 4
  %6 = alloca ptr, align 8
  %7 = alloca i32, align 4
  %8 = alloca i32, align 4
  %9 = alloca ptr, align 8
  store ptr %0, ptr %4, align 8, !tbaa !20
  store i32 %1, ptr %5, align 4, !tbaa !7
  call void @llvm.lifetime.start.p0(i64 8, ptr %6) #4
  call void @llvm.lifetime.start.p0(i64 4, ptr %7) #4
  %10 = load ptr, ptr %4, align 8, !tbaa !20
  %11 = call i32 @arkStep_AccessStepMem(ptr noundef %10, ptr noundef @__func__.arkStep_SetMaxNonlinIters, ptr noundef %6)
  store i32 %11, ptr %7, align 4, !tbaa !7
  %12 = load i32, ptr %7, align 4, !tbaa !7
  %13 = icmp ne i32 %12, 0
  br i1 %13, label %14, label %16

14:                                               ; preds = %2
  %15 = load i32, ptr %7, align 4, !tbaa !7
  store i32 %15, ptr %3, align 4
  store i32 1, ptr %8, align 4
  br label %50

16:                                               ; preds = %2
  call void @llvm.lifetime.start.p0(i64 8, ptr %9) #4
  %17 = load ptr, ptr %4, align 8, !tbaa !20
  %18 = getelementptr inbounds nuw %struct.ARKodeMemRec, ptr %17, i32 0, i32 0
  %19 = load ptr, ptr %18, align 8, !tbaa !87
  store ptr %19, ptr %9, align 8, !tbaa !90
  %20 = load ptr, ptr %6, align 8, !tbaa !9
  %21 = getelementptr inbounds nuw %struct.ARKodeARKStepMemRec, ptr %20, i32 0, i32 21
  %22 = load ptr, ptr %21, align 8, !tbaa !83
  %23 = icmp eq ptr %22, null
  br i1 %23, label %24, label %26

24:                                               ; preds = %16
  %25 = load ptr, ptr %4, align 8, !tbaa !20
  call void (ptr, i32, i32, ptr, ptr, ptr, ...) @arkProcessError(ptr noundef %25, i32 noundef -32, i32 noundef 1075, ptr noundef @__func__.arkStep_SetMaxNonlinIters, ptr noundef @.str, ptr noundef @.str.23)
  store i32 -22, ptr %3, align 4
  store i32 1, ptr %8, align 4
  br label %49

26:                                               ; preds = %16
  %27 = load i32, ptr %5, align 4, !tbaa !7
  %28 = icmp sle i32 %27, 0
  br i1 %28, label %29, label %32

29:                                               ; preds = %26
  %30 = load ptr, ptr %6, align 8, !tbaa !9
  %31 = getelementptr inbounds nuw %struct.ARKodeARKStepMemRec, ptr %30, i32 0, i32 37
  store i32 3, ptr %31, align 8, !tbaa !73
  br label %36

32:                                               ; preds = %26
  %33 = load i32, ptr %5, align 4, !tbaa !7
  %34 = load ptr, ptr %6, align 8, !tbaa !9
  %35 = getelementptr inbounds nuw %struct.ARKodeARKStepMemRec, ptr %34, i32 0, i32 37
  store i32 %33, ptr %35, align 8, !tbaa !73
  br label %36

36:                                               ; preds = %32, %29
  %37 = load ptr, ptr %6, align 8, !tbaa !9
  %38 = getelementptr inbounds nuw %struct.ARKodeARKStepMemRec, ptr %37, i32 0, i32 21
  %39 = load ptr, ptr %38, align 8, !tbaa !83
  %40 = load ptr, ptr %6, align 8, !tbaa !9
  %41 = getelementptr inbounds nuw %struct.ARKodeARKStepMemRec, ptr %40, i32 0, i32 37
  %42 = load i32, ptr %41, align 8, !tbaa !73
  %43 = call i32 @SUNNonlinSolSetMaxIters(ptr noundef %39, i32 noundef %42)
  store i32 %43, ptr %7, align 4, !tbaa !7
  %44 = load i32, ptr %7, align 4, !tbaa !7
  %45 = icmp ne i32 %44, 0
  br i1 %45, label %46, label %48

46:                                               ; preds = %36
  %47 = load ptr, ptr %4, align 8, !tbaa !20
  call void (ptr, i32, i32, ptr, ptr, ptr, ...) @arkProcessError(ptr noundef %47, i32 noundef -32, i32 noundef 1088, ptr noundef @__func__.arkStep_SetMaxNonlinIters, ptr noundef @.str, ptr noundef @.str.24)
  store i32 -32, ptr %3, align 4
  store i32 1, ptr %8, align 4
  br label %49

48:                                               ; preds = %36
  store i32 0, ptr %3, align 4
  store i32 1, ptr %8, align 4
  br label %49

49:                                               ; preds = %48, %46, %24
  call void @llvm.lifetime.end.p0(i64 8, ptr %9) #4
  br label %50

50:                                               ; preds = %49, %14
  call void @llvm.lifetime.end.p0(i64 4, ptr %7) #4
  call void @llvm.lifetime.end.p0(i64 8, ptr %6) #4
  %51 = load i32, ptr %3, align 4
  ret i32 %51
}